(dp0
Vversion
p1
Vv1
p2
sVconfig
p3
(dp4
VvisState
p5
(dp6
Vlayers
p7
(lp8
(dp9
Vtype
p10
Vhexagon
p11
sVvisualChannels
p12
(dp13
VsizeField
p14
NsVcolorField
p15
NsVsizeScale
p16
Vlinear
p17
sVcolorScale
p18
Vquantile
p19
ssVconfig
p20
(dp21
VdataId
p22
VATLPD 2015-2019 Sept
p23
sVcolor
p24
(lp25
I221
aI178
aI124
asVtextLabel
p26
(lp27
(dp28
Vcolor
p29
(lp30
I255
aI255
aI255
asVfield
p31
NsVoffset
p32
(lp33
I0
aI0
asVanchor
p34
Vstart
p35
sValignment
p36
Vcenter
p37
sVsize
p38
I18
sasVlabel
p39
VPoint
p40
sVisVisible
p41
I01
sVvisConfig
p42
(dp43
Vopacity
p44
F0.8
sVsizeRange
p45
(lp46
I0
aI500
asVcoverage
p47
F0.7
sVworldUnitSize
p48
I1
sVelevationPercentile
p49
(lp50
I0
aI100
asVcolorAggregation
p51
Vcount
p52
sVelevationScale
p53
I5
sVsizeAggregation
p54
Vcount
p55
sVpercentile
p56
(lp57
I0
aI100
asVenable3d
p58
I01
sVresolution
p59
I8
sVcolorRange
p60
(dp61
Vcategory
p62
VColorBrewer
p63
sVcolors
p64
(lp65
V#1a9850
p66
aV#91cf60
p67
aV#d9ef8b
p68
aV#fee08b
p69
aV#fc8d59
p70
aV#d73027
p71
asVtype
p72
Vdiverging
p73
sVreversed
p74
I01
sVname
p75
VColorBrewer RdYlGn-6
p76
sssVcolumns
p77
(dp78
Vlat
p79
VLatitude
p80
sVlng
p81
VLongitude
p82
sssVid
p83
V06nazxq
p84
sasVinteractionConfig
p85
(dp86
Vbrush
p87
(dp88
Venabled
p89
I00
sVsize
p90
F0.5
ssVtooltip
p91
(dp92
VfieldsToShow
p93
(dp94
VATLPD 2015-2019 Sept
p95
(lp96
VReport Number
p97
aVOccur Date
p98
aVOccur Time
p99
aVBeat
p100
aVLocation
p101
assVenabled
p102
I01
sssVsplitMaps
p103
(lp104
sVlayerBlending
p105
Vnormal
p106
sVfilters
p107
(lp108
ssVmapState
p109
(dp110
Vbearing
p111
F33.865563598759046
sVdragRotate
p112
I01
sVzoom
p113
F11.016138722711723
sVlongitude
p114
F-84.43856082747692
sVisSplit
p115
I00
sVpitch
p116
F49.67432787719447
sVlatitude
p117
F33.734014738877875
ssVmapStyle
p118
(dp119
VmapStyles
p120
(dp121
sVtopLayerGroups
p122
(dp123
sVthreeDBuildingColor
p124
(lp125
F9.665468314072013
aF17.18305478057247
aF31.1442867897876
asVstyleType
p126
Vdark
p127
sVvisibleLayerGroups
p128
(dp129
Vbuilding
p130
I01
sVland
p131
I01
sV3d building
p132
I00
sVlabel
p133
I01
sVwater
p134
I01
sVborder
p135
I00
sVroad
p136
I01
ssss.